******************************************************************************
                  TI ARM Linker PC v16.9.0                     
******************************************************************************
>> Linked Tue Mar 07 01:34:38 2017

OUTPUT FILE NAME:   <APOPHIS v1.0.out>
ENTRY POINT SYMBOL: "_c_int00"  address: 00009885


MEMORY CONFIGURATION

         name            origin    length      used     unused   attr    fill
----------------------  --------  ---------  --------  --------  ----  --------
  FLASH                 00000000   00100000  0000ae46  000f51ba  R  X
  SRAM                  20000000   00040000  00001a07  0003e5f9  RW X


SEGMENT ALLOCATION MAP

run origin  load origin   length   init length attrs members
----------  ----------- ---------- ----------- ----- -------
00000000    00000000    0000ae50   0000ae50    r-x
  00000000    00000000    00000208   00000208    r-- .intvecs
  00000208    00000208    0000a35a   0000a35a    r-x .text
  0000a568    0000a568    00000814   00000814    r-- .const
  0000ad80    0000ad80    000000d0   000000d0    r-- .cinit
20000000    20000000    00001a08   00000000    rw-
  20000000    20000000    0000026c   00000000    rw- .vtable
  2000026c    2000026c    00001000   00000000    rw- .stack
  2000126c    2000126c    00000343   00000000    rw- .bss
  200015b0    200015b0    00000258   00000000    rw- .data
  20001808    20001808    00000200   00000000    rw- .sysmem


SECTION ALLOCATION MAP

 output                                  attributes/
section   page    origin      length       input sections
--------  ----  ----------  ----------   ----------------
.intvecs   0    00000000    00000208     
                  00000000    00000208     tm4c1294ncpdt_startup_ccs.obj (.intvecs)

.text      0    00000208    0000a35a     
                  00000208    000027d0     main.obj (.text)
                  000029d8    0000113a     rtsv7M4_T_le_v4SPD16_eabi.lib : _printfi.obj (.text)
                  00003b12    00000002                                   : i_div0.obj (.text)
                  00003b14    00000c74     initializations.obj (.text)
                  00004788    000008ac     comp_dcm.obj (.text)
                  00005034    0000065e     bmi160.obj (.text)
                  00005692    00000002     rtsv7M4_T_le_v4SPD16_eabi.lib : l_div0.obj (.text)
                  00005694    00000624     gnd_mtrs.obj (.text)
                  00005cb8    0000049c     uartstdio.obj (.text)
                  00006154    000003d0     rtsv7M4_T_le_v4SPD16_eabi.lib : memory.obj (.text)
                  00006524    000003a6     bme280.obj (.text)
                  000068ca    00000002     rtsv7M4_T_le_v4SPD16_eabi.lib : mpu_init.obj (.text)
                  000068cc    00000324                                   : trgdrv.obj (.text)
                  00006bf0    0000030c                                   : lowlev.obj (.text)
                  00006efc    00000298                                   : vla_alloc.obj (.text)
                  00007194    0000023e     i2c_driver.obj (.text)
                  000073d2    00000002     rtsv7M4_T_le_v4SPD16_eabi.lib : startup.obj (.text)
                  000073d4    0000023c                                   : strtod.obj (.text)
                  00007610    0000021e                                   : ll_div_t2.obj (.text)
                  0000782e    000001f4                                   : ull_div_t2.obj (.text)
                  00007a22    00000002     --HOLE-- [fill = 0]
                  00007a24    000001ec     driverlib.lib : sysctl.obj (.text:SysCtlClockFreqSet)
                  00007c10    000001c4     rtsv7M4_T_le_v4SPD16_eabi.lib : fopen.obj (.text)
                  00007dd4    000001b6                                   : fd_add_t2.obj (.text)
                  00007f8a    00000002     --HOLE-- [fill = 0]
                  00007f8c    00000178                                   : e_asinf.obj (.text)
                  00008104    00000174     mma8452q.obj (.text)
                  00008278    00000170     rtsv7M4_T_le_v4SPD16_eabi.lib : e_sqrt.obj (.text)
                  000083e8    00000158                                   : e_atan2f.obj (.text)
                  00008540    00000150                                   : s_atanf.obj (.text)
                  00008690    00000136                                   : fd_div_t2.obj (.text)
                  000087c6    00000002     --HOLE-- [fill = 0]
                  000087c8    00000134                                   : fputs.obj (.text)
                  000088fc    00000132     driverlib.lib : gpio.obj (.text:GPIOPadConfigSet)
                  00008a2e    000000fc     rtsv7M4_T_le_v4SPD16_eabi.lib : fd_mul_t2.obj (.text)
                  00008b2a    00000002     --HOLE-- [fill = 0]
                  00008b2c    000000fc                                   : s_scalbn.obj (.text)
                  00008c28    000000e0     buttons.obj (.text)
                  00008d08    000000dc     rtsv7M4_T_le_v4SPD16_eabi.lib : setvbuf.obj (.text)
                  00008de4    000000c8                                   : fflush.obj (.text)
                  00008eac    000000ac                                   : _io_perm.obj (.text)
                  00008f58    0000009c                                   : memcpy_t2.obj (.text)
                  00008ff4    00000098                                   : fclose.obj (.text)
                  0000908c    00000098                                   : fputc.obj (.text)
                  00009124    00000086                                   : fd_cmp_t2.obj (.text:__aeabi_cdcmple)
                  000091aa    00000086                                   : fd_cmp_t2.obj (.text:__aeabi_cdrcmple)
                  00009230    0000007a     driverlib.lib : adc.obj (.text:ADCSequenceStepConfigure)
                  000092aa    0000007a     rtsv7M4_T_le_v4SPD16_eabi.lib : memset_t2.obj (.text)
                  00009324    00000070                                   : autoinit.obj (.text)
                  00009394    0000006e                                   : fd_tos_t2.obj (.text)
                  00009402    00000002     --HOLE-- [fill = 0]
                  00009404    0000006c                                   : fprintf.obj (.text)
                  00009470    00000068     driverlib.lib : interrupt.obj (.text:IntEnable)
                  000094d8    00000068     rtsv7M4_T_le_v4SPD16_eabi.lib : copy_decompress_lzss.obj (.text:decompress:lzss)
                  00009540    00000068                                   : trgmsg.obj (.text)
                  000095a8    00000064                                   : fseek.obj (.text)
                  0000960c    00000064                                   : s_frexp.obj (.text)
                  00009670    00000060     driverlib.lib : timer.obj (.text:TimerConfigure)
                  000096d0    00000058                   : adc.obj (.text:ADCSequenceConfigure)
                  00009728    00000058     tm4c1294ncpdt_startup_ccs.obj (.text)
                  00009780    00000056     driverlib.lib : gpio.obj (.text:GPIOIntTypeSet)
                  000097d6    00000056     sensorlib.lib : vector.obj (.text:VectorCrossProduct)
                  0000982c    00000056     rtsv7M4_T_le_v4SPD16_eabi.lib : ltoa.obj (.text)
                  00009882    00000002     --HOLE-- [fill = 0]
                  00009884    00000054                                   : boot.obj (.text)
                  000098d8    00000054                                   : exit.obj (.text)
                  0000992c    00000050     driverlib.lib : sysctl.obj (.text:SysCtlPeripheralReset)
                  0000997c    00000050                   : adc.obj (.text:_ADCIntNumberGet)
                  000099cc    0000004c                   : i2c.obj (.text:I2CMasterInitExpClk)
                  00009a18    0000004c                   : timer.obj (.text:_TimerIntNumberGet)
                  00009a64    0000004c     rtsv7M4_T_le_v4SPD16_eabi.lib : atoi.obj (.text)
                  00009ab0    0000004c                                   : cpy_tbl.obj (.text)
                  00009afc    00000048     driverlib.lib : gpio.obj (.text:GPIOPinConfigure)
                  00009b44    00000048                   : sysctl.obj (.text:_SysCtlFrequencyGet)
                  00009b8c    00000048     rtsv7M4_T_le_v4SPD16_eabi.lib : fd_toi_t2.obj (.text)
                  00009bd4    00000046     driverlib.lib : uart.obj (.text:UARTConfigSetExpClk)
                  00009c1a    00000002     --HOLE-- [fill = 0]
                  00009c1c    00000040                   : gpio.obj (.text:_GPIOIntNumberGet)
                  00009c5c    00000040                   : uart.obj (.text:_UARTIntNumberGet)
                  00009c9c    00000040     rtsv7M4_T_le_v4SPD16_eabi.lib : u_divt2.obj (.text)
                  00009cdc    00000038     driverlib.lib : sysctl.obj (.text:SysCtlPeripheralPresent)
                  00009d14    00000038                   : sysctl.obj (.text:SysCtlPeripheralReady)
                  00009d4c    00000038     rtsv7M4_T_le_v4SPD16_eabi.lib : fs_tod_t2.obj (.text)
                  00009d84    00000036                                   : strncpy.obj (.text)
                  00009dba    00000002     --HOLE-- [fill = 0]
                  00009dbc    00000034     driverlib.lib : interrupt.obj (.text:IntRegister)
                  00009df0    00000034                   : sysctl.obj (.text:SysCtlPeripheralDisable)
                  00009e24    00000034                   : sysctl.obj (.text:SysCtlPeripheralEnable)
                  00009e58    00000032     sensorlib.lib : vector.obj (.text:VectorAdd)
                  00009e8a    00000030     comp_dcm.obj (.text:__isnanf)
                  00009eba    0000002e     driverlib.lib : adc.obj (.text:ADCIntStatus)
                  00009ee8    0000002e     rtsv7M4_T_le_v4SPD16_eabi.lib : i_tofd_t2.obj (.text)
                  00009f16    0000002a     driverlib.lib : gpio.obj (.text:GPIODirModeSet)
                  00009f40    00000028     rtsv7M4_T_le_v4SPD16_eabi.lib : e_sqrtf.obj (.text)
                  00009f68    00000026     sensorlib.lib : vector.obj (.text:VectorDotProduct)
                  00009f8e    00000026                   : vector.obj (.text:VectorScale)
                  00009fb4    00000022     driverlib.lib : pwm.obj (.text:PWMGenConfigure)
                  00009fd6    00000002     --HOLE-- [fill = 0]
                  00009fd8    00000020                   : uart.obj (.text:UARTDisable)
                  00009ff8    00000020                   : sysctl.obj (.text:_SysCtlMemTimingGet)
                  0000a018    00000020     rtsv7M4_T_le_v4SPD16_eabi.lib : memchr.obj (.text)
                  0000a038    0000001e     driverlib.lib : adc.obj (.text:ADCSequenceDataGet)
                  0000a056    0000001e                   : pwm.obj (.text:PWMPulseWidthSet)
                  0000a074    0000001c                   : systick.obj (.text:SysTickIntRegister)
                  0000a090    0000001c     rtsv7M4_T_le_v4SPD16_eabi.lib : memccpy.obj (.text)
                  0000a0ac    00000018     driverlib.lib : adc.obj (.text:ADCClockConfigSet)
                  0000a0c4    00000018                   : adc.obj (.text:ADCIntRegister)
                  0000a0dc    00000018                   : adc.obj (.text:ADCProcessorTrigger)
                  0000a0f4    00000018                   : gpio.obj (.text:GPIOIntRegister)
                  0000a10c    00000018                   : gpio.obj (.text:GPIOPinTypeGPIOOutput)
                  0000a124    00000018                   : timer.obj (.text:TimerDisable)
                  0000a13c    00000018                   : timer.obj (.text:TimerIntRegister)
                  0000a154    00000018                   : uart.obj (.text:UARTIntRegister)
                  0000a16c    00000018     rtsv7M4_T_le_v4SPD16_eabi.lib : args_main.obj (.text)
                  0000a184    00000018                                   : ll_mul_t2.obj (.text)
                  0000a19c    00000018                                   : strcmp.obj (.text)
                  0000a1b4    00000016     driverlib.lib : i2c.obj (.text:I2CMasterErr)
                  0000a1ca    00000016                   : timer.obj (.text:TimerControlEvent)
                  0000a1e0    00000016     rtsv7M4_T_le_v4SPD16_eabi.lib : strchr.obj (.text)
                  0000a1f6    00000002     --HOLE-- [fill = 0]
                  0000a1f8    00000014     driverlib.lib : pwm.obj (.text:PWMClockSet)
                  0000a20c    00000014                   : systick.obj (.text:SysTickEnable)
                  0000a220    00000014                   : systick.obj (.text:SysTickIntEnable)
                  0000a234    00000014                   : uart.obj (.text:UARTEnable)
                  0000a248    00000014     rtsv7M4_T_le_v4SPD16_eabi.lib : _lock.obj (.text)
                  0000a25c    00000014                                   : s_copysign.obj (.text)
                  0000a270    00000014                                   : strcpy.obj (.text)
                  0000a284    00000014                                   : strlen.obj (.text)
                  0000a298    00000012     driverlib.lib : gpio.obj (.text:GPIOPinTypeADC)
                  0000a2aa    00000012                   : gpio.obj (.text:GPIOPinTypeGPIOInput)
                  0000a2bc    00000012                   : gpio.obj (.text:GPIOPinTypeI2C)
                  0000a2ce    00000012                   : gpio.obj (.text:GPIOPinTypeI2CSCL)
                  0000a2e0    00000012                   : gpio.obj (.text:GPIOPinTypePWM)
                  0000a2f2    00000012                   : gpio.obj (.text:GPIOPinTypeTimer)
                  0000a304    00000012                   : gpio.obj (.text:GPIOPinTypeUART)
                  0000a316    00000012                   : pwm.obj (.text:PWMGenPeriodGet)
                  0000a328    00000012                   : pwm.obj (.text:PWMOutputState)
                  0000a33a    00000012                   : timer.obj (.text:TimerLoadSet)
                  0000a34c    00000012                   : timer.obj (.text:TimerPrescaleSet)
                  0000a35e    00000012     rtsv7M4_T_le_v4SPD16_eabi.lib : atof.obj (.text)
                  0000a370    00000010     driverlib.lib : adc.obj (.text:ADCIntEnable)
                  0000a380    00000010                   : fpu.obj (.text:FPUEnable)
                  0000a390    00000010                   : fpu.obj (.text:FPULazyStackingEnable)
                  0000a3a0    00000010                   : interrupt.obj (.text:IntMasterDisable)
                  0000a3b0    00000010                   : interrupt.obj (.text:IntMasterEnable)
                  0000a3c0    00000010                   : pwm.obj (.text:PWMGenPeriodSet)
                  0000a3d0    00000010                   : systick.obj (.text:SysTickPeriodSet)
                  0000a3e0    0000000e                   : adc.obj (.text:ADCSequenceDisable)
                  0000a3ee    0000000e                   : adc.obj (.text:ADCSequenceEnable)
                  0000a3fc    0000000e                   : gpio.obj (.text:GPIOIntStatus)
                  0000a40a    0000000e                   : timer.obj (.text:TimerEnable)
                  0000a418    0000000e                   : uart.obj (.text:UARTCharGetNonBlocking)
                  0000a426    0000000e                   : uart.obj (.text:UARTCharPutNonBlocking)
                  0000a434    0000000e                   : uart.obj (.text:UARTCharsAvail)
                  0000a442    0000000e                   : uart.obj (.text:UARTSpaceAvail)
                  0000a450    0000000e     rtsv7M4_T_le_v4SPD16_eabi.lib : copy_decompress_none.obj (.text:decompress:none)
                  0000a45e    0000000c     driverlib.lib : adc.obj (.text:ADCReferenceSet)
                  0000a46a    0000000c                   : cpu.obj (.text:CPUcpsid)
                  0000a476    0000000c                   : cpu.obj (.text:CPUcpsie)
                  0000a482    0000000c                   : gpio.obj (.text:GPIOIntEnable)
                  0000a48e    0000000c     rtsv7M4_T_le_v4SPD16_eabi.lib : copy_zero_init.obj (.text:decompress:ZI)
                  0000a49a    0000000a     driverlib.lib : adc.obj (.text:ADCIntClear)
                  0000a4a4    0000000a                   : i2c.obj (.text:I2CMasterDisable)
                  0000a4ae    0000000a                   : i2c.obj (.text:I2CMasterEnable)
                  0000a4b8    0000000a                   : timer.obj (.text:TimerIntStatus)
                  0000a4c2    0000000a                   : timer.obj (.text:TimerValueGet)
                  0000a4cc    0000000a                   : uart.obj (.text:UARTCharGet)
                  0000a4d6    0000000a                   : uart.obj (.text:UARTCharPut)
                  0000a4e0    0000000a                   : uart.obj (.text:UARTIntStatus)
                  0000a4ea    00000008                   : adc.obj (.text:ADCBusy)
                  0000a4f2    00000008                   : i2c.obj (.text:I2CMasterBusBusy)
                  0000a4fa    00000008                   : i2c.obj (.text:I2CMasterBusy)
                  0000a502    00000008                   : i2c.obj (.text:I2CMasterSlaveAddrSet)
                  0000a50a    00000008                   : timer.obj (.text:TimerIntEnable)
                  0000a512    00000008                   : uart.obj (.text:UARTBusy)
                  0000a51a    00000008                   : uart.obj (.text:UARTIntEnable)
                  0000a522    00000006                   : gpio.obj (.text:GPIOIntClear)
                  0000a528    00000006                   : gpio.obj (.text:GPIOPinRead)
                  0000a52e    00000006                   : gpio.obj (.text:GPIOPinWrite)
                  0000a534    00000006                   : sysctl.obj (.text:SysCtlDelay)
                  0000a53a    00000006                   : timer.obj (.text:TimerClockSourceSet)
                  0000a540    00000006                   : uart.obj (.text:UARTClockSourceSet)
                  0000a546    00000004                   : i2c.obj (.text:I2CMasterControl)
                  0000a54a    00000004                   : i2c.obj (.text:I2CMasterDataGet)
                  0000a54e    00000004                   : i2c.obj (.text:I2CMasterDataPut)
                  0000a552    00000004                   : timer.obj (.text:TimerIntClear)
                  0000a556    00000004                   : uart.obj (.text:UARTIntClear)
                  0000a55a    00000004     rtsv7M4_T_le_v4SPD16_eabi.lib : error.obj (.text)
                  0000a55e    00000004                                   : pre_init.obj (.text)

.const     0    0000a568    00000814     
                  0000a568    000001b0     driverlib.lib : sysctl.obj (.const:g_pppui32XTALtoVCO)
                  0000a718    00000101     rtsv7M4_T_le_v4SPD16_eabi.lib : ctype.obj (.const:.string:_ctypes_)
                  0000a819    00000003     --HOLE-- [fill = 0]
                  0000a81c    000000c0     driverlib.lib : gpio.obj (.const:g_ppui32GPIOIntMapBlizzard)
                  0000a8dc    000000c0                   : gpio.obj (.const:g_ppui32GPIOIntMapSnowflake)
                  0000a99c    00000004     uartstdio.obj (.const)
                  0000a9a0    00000098     rtsv7M4_T_le_v4SPD16_eabi.lib : strtod.obj (.const:$O1$$)
                  0000aa38    00000090     driverlib.lib : gpio.obj (.const:g_pui32GPIOBaseAddrs)
                  0000aac8    00000070                   : interrupt.obj (.const)
                  0000ab38    0000006c                   : sysctl.obj (.const:g_pui32Xtals)
                  0000aba4    00000060                   : timer.obj (.const:g_ppui32TimerIntMap)
                  0000ac04    00000040                   : timer.obj (.const:g_ppui32TimerIntMapSnowflake)
                  0000ac44    00000040                   : uart.obj (.const:g_ppui32UARTIntMap)
                  0000ac84    00000040                   : uart.obj (.const:g_ppui32UARTIntMapSnowflake)
                  0000acc4    00000034     rtsv7M4_T_le_v4SPD16_eabi.lib : s_atanf.obj (.const:$O1$$)
                  0000acf8    00000030     driverlib.lib : sysctl.obj (.const:g_sXTALtoMEMTIM)
                  0000ad28    00000020     rtsv7M4_T_le_v4SPD16_eabi.lib : e_asinf.obj (.const)
                  0000ad48    00000012     uartstdio.obj (.const:.string)
                  0000ad5a    00000002     --HOLE-- [fill = 0]
                  0000ad5c    0000000c     uartstdio.obj (.const:g_ui32UARTBase)
                  0000ad68    0000000c     uartstdio.obj (.const:g_ui32UARTPeriph)
                  0000ad74    00000008     driverlib.lib : sysctl.obj (.const)

.cinit     0    0000ad80    000000d0     
                  0000ad80    00000096     (.cinit..data.load) [load image, compression = lzss]
                  0000ae16    00000002     --HOLE-- [fill = 0]
                  0000ae18    0000000c     (__TI_handler_table)
                  0000ae24    00000004     --HOLE-- [fill = 0]
                  0000ae28    00000008     (.cinit..bss.load) [load image, compression = zero_init]
                  0000ae30    00000008     (.cinit..vtable.load) [load image, compression = zero_init]
                  0000ae38    00000018     (__TI_cinit_table)

.init_array 
*          0    00000000    00000000     UNINITIALIZED

.vtable    0    20000000    0000026c     UNINITIALIZED
                  20000000    0000026c     driverlib.lib : interrupt.obj (.vtable)

.stack     0    2000026c    00001000     UNINITIALIZED
                  2000026c    00001000     --HOLE--

.bss       0    2000126c    00000343     UNINITIALIZED
                  2000126c    00000120     rtsv7M4_T_le_v4SPD16_eabi.lib : trgmsg.obj (.bss:_CIOBUF_)
                  2000138c    000000a0     (.common:__TI_tmpnams)
                  2000142c    00000058     (.common:g_sCompDCMInst)
                  20001484    00000054     (.common:g_Pack)
                  200014d8    0000002c     (.common:sStatus)
                  20001504    00000020     (.common:sThrottle)
                  20001524    0000001c                                   : vla_alloc.obj (.bss:$O1$$)
                  20001540    0000001c     (.common:g_sRxPack)
                  2000155c    0000000c     (.common:g_BME280OffsetValues)
                  20001568    0000000c     (.common:g_fGyroData)
                  20001574    0000000c     (.common:g_fMagData)
                  20001580    00000008                                   : trgdrv.obj (.bss:parmbuf)
                  20001588    00000008     (.common:g_BME280RawData)
                  20001590    00000004     (.common:g_BME280OffsetUnsigned)
                  20001594    00000004     (.common:g_Pressure)
                  20001598    00000004     (.common:g_SysClockSpeed)
                  2000159c    00000004     (.common:g_Temp)
                  200015a0    00000004     (.common:g_TimerFallValue)
                  200015a4    00000004     (.common:g_TimerRiseValue)
                  200015a8    00000004     (.common:g_t_fine)
                  200015ac    00000001     main.obj (.bss)
                  200015ad    00000001     (.common:g_CharConsole)
                  200015ae    00000001     (.common:g_bDCMStarted)

.data      0    200015b0    00000258     UNINITIALIZED
                  200015b0    000000f0     rtsv7M4_T_le_v4SPD16_eabi.lib : defs.obj (.data:_ftable)
                  200016a0    000000d0                                   : lowlev.obj (.data:$O1$$)
                  20001770    00000042     main.obj (.data)
                  200017b2    00000002     --HOLE--
                  200017b4    00000010     rtsv7M4_T_le_v4SPD16_eabi.lib : defs.obj (.data)
                  200017c4    0000000c                                   : exit.obj (.data:$O1$$)
                  200017d0    0000000c                                   : memory.obj (.data:$O1$$)
                  200017dc    00000008                                   : _lock.obj (.data:$O1$$)
                  200017e4    00000006     main.obj (.data:g_GyroBias)
                  200017ea    00000006     main.obj (.data:g_MagBias)
                  200017f0    00000005     uartstdio.obj (.data)
                  200017f5    00000003     buttons.obj (.data)
                  200017f8    00000004     rtsv7M4_T_le_v4SPD16_eabi.lib : errno.obj (.data)
                  200017fc    00000004                                   : fopen.obj (.data)
                  20001800    00000004                                   : stkdepth_vars.obj (.data)
                  20001804    00000004     main.obj (.data:ui8Magic$2)

.sysmem    0    20001808    00000200     UNINITIALIZED
                  20001808    00000008     rtsv7M4_T_le_v4SPD16_eabi.lib : memory.obj (.sysmem)
                  20001810    000001f8     --HOLE--

MODULE SUMMARY

       Module                          code    ro data   rw data
       ------                          ----    -------   -------
    .\
       main.obj                        10192   0         433    
       initializations.obj             3188    0         0      
       tm4c1294ncpdt_startup_ccs.obj   88      520       0      
    +--+-------------------------------+-------+---------+---------+
       Total:                          13468   520       433    
                                                                
    .\misc\
       uartstdio.obj                   1180    46        5      
       buttons.obj                     224     0         3      
    +--+-------------------------------+-------+---------+---------+
       Total:                          1404    46        8      
                                                                
    .\motors\
       gnd_mtrs.obj                    1572    0         0      
    +--+-------------------------------+-------+---------+---------+
       Total:                          1572    0         0      
                                                                
    .\sensors\
       comp_dcm.obj                    2268    0         0      
       bmi160.obj                      1630    0         0      
       bme280.obj                      934     0         0      
       i2c_driver.obj                  574     0         0      
       mma8452q.obj                    372     0         0      
    +--+-------------------------------+-------+---------+---------+
       Total:                          5778    0         0      
                                                                
    C:/Tivaware/TM4C1294XL/driverlib/ccs/Debug/driverlib.lib
       sysctl.obj                      898     596       0      
       gpio.obj                        788     528       0      
       interrupt.obj                   188     112       620    
       adc.obj                         512     0         0      
       timer.obj                       330     160       0      
       uart.obj                        322     128       0      
       i2c.obj                         154     0         0      
       pwm.obj                         136     0         0      
       systick.obj                     84      0         0      
       fpu.obj                         32      0         0      
       cpu.obj                         24      0         0      
    +--+-------------------------------+-------+---------+---------+
       Total:                          3468    1524      620    
                                                                
    C:/Tivaware/TM4C1294XL/sensorlib/ccs/Debug/sensorlib.lib
       vector.obj                      212     0         0      
    +--+-------------------------------+-------+---------+---------+
       Total:                          212     0         0      
                                                                
    C:\CCS\ccsv7\tools\compiler\ti-cgt-arm_16.9.0.LTS\lib\rtsv7M4_T_le_v4SPD16_eabi.lib
       _printfi.obj                    4410    0         0      
       lowlev.obj                      780     0         208    
       memory.obj                      976     0         12     
       trgdrv.obj                      804     0         8      
       strtod.obj                      572     152       0      
       vla_alloc.obj                   664     0         28     
       ll_div_t2.obj                   542     0         0      
       ull_div_t2.obj                  500     0         0      
       fopen.obj                       452     0         4      
       fd_add_t2.obj                   438     0         0      
       defs.obj                        0       0         416    
       e_asinf.obj                     376     32        0      
       trgmsg.obj                      104     0         288    
       s_atanf.obj                     336     52        0      
       e_sqrt.obj                      368     0         0      
       e_atan2f.obj                    344     0         0      
       fd_div_t2.obj                   310     0         0      
       fputs.obj                       308     0         0      
       fd_cmp_t2.obj                   268     0         0      
       ctype.obj                       0       257       0      
       fd_mul_t2.obj                   252     0         0      
       s_scalbn.obj                    252     0         0      
       setvbuf.obj                     220     0         0      
       fflush.obj                      200     0         0      
       _io_perm.obj                    172     0         0      
       memcpy_t2.obj                   156     0         0      
       fclose.obj                      152     0         0      
       fputc.obj                       152     0         0      
       memset_t2.obj                   122     0         0      
       autoinit.obj                    112     0         0      
       fd_tos_t2.obj                   110     0         0      
       fprintf.obj                     108     0         0      
       copy_decompress_lzss.obj        104     0         0      
       fseek.obj                       100     0         0      
       s_frexp.obj                     100     0         0      
       exit.obj                        84      0         12     
       ltoa.obj                        86      0         0      
       boot.obj                        84      0         0      
       atoi.obj                        76      0         0      
       cpy_tbl.obj                     76      0         0      
       fd_toi_t2.obj                   72      0         0      
       u_divt2.obj                     64      0         0      
       fs_tod_t2.obj                   56      0         0      
       strncpy.obj                     54      0         0      
       i_tofd_t2.obj                   46      0         0      
       e_sqrtf.obj                     40      0         0      
       memchr.obj                      32      0         0      
       _lock.obj                       20      0         8      
       memccpy.obj                     28      0         0      
       args_main.obj                   24      0         0      
       ll_mul_t2.obj                   24      0         0      
       strcmp.obj                      24      0         0      
       strchr.obj                      22      0         0      
       s_copysign.obj                  20      0         0      
       strcpy.obj                      20      0         0      
       strlen.obj                      20      0         0      
       atof.obj                        18      0         0      
       copy_decompress_none.obj        14      0         0      
       copy_zero_init.obj              12      0         0      
       errno.obj                       0       0         4      
       error.obj                       4       0         0      
       pre_init.obj                    4       0         0      
       stkdepth_vars.obj               0       0         4      
       i_div0.obj                      2       0         0      
       l_div0.obj                      2       0         0      
       mpu_init.obj                    2       0         0      
       startup.obj                     2       0         0      
    +--+-------------------------------+-------+---------+---------+
       Total:                          15896   493       992    
                                                                
       Heap:                           0       0         512    
       Stack:                          0       0         4096   
       Linker Generated:               0       202       0      
    +--+-------------------------------+-------+---------+---------+
       Grand Total:                    41798   2785      6661   


LINKER GENERATED COPY TABLES

__TI_cinit_table @ 0000ae38 records: 3, size/record: 8, table size: 24
	.data: load addr=0000ad80, load size=00000096 bytes, run addr=200015b0, run size=00000258 bytes, compression=lzss
	.bss: load addr=0000ae28, load size=00000008 bytes, run addr=2000126c, run size=00000343 bytes, compression=zero_init
	.vtable: load addr=0000ae30, load size=00000008 bytes, run addr=20000000, run size=0000026c bytes, compression=zero_init


LINKER GENERATED HANDLER TABLE

__TI_handler_table @ 0000ae18 records: 3, size/record: 4, table size: 12
	index: 0, handler: __TI_zero_init
	index: 1, handler: __TI_decompress_lzss
	index: 2, handler: __TI_decompress_none


GLOBAL SYMBOLS: SORTED ALPHABETICALLY BY Name 

address   name                           
-------   ----                           
0000a4eb  ADCBusy                        
0000a0ad  ADCClockConfigSet              
0000a49b  ADCIntClear                    
0000a371  ADCIntEnable                   
0000a0c5  ADCIntRegister                 
00009ebb  ADCIntStatus                   
0000a0dd  ADCProcessorTrigger            
0000a45f  ADCReferenceSet                
000096d1  ADCSequenceConfigure           
0000a039  ADCSequenceDataGet             
0000a3e1  ADCSequenceDisable             
0000a3ef  ADCSequenceEnable              
00009231  ADCSequenceStepConfigure       
0000173d  ActivateSolenoids              
00000a6d  BME280IntHandler               
00006685  BME280_compensate_P_int64      
00006613  BME280_compensate_T_int32      
00000a4b  BMI160IntHandler               
00008cc9  ButtonsInit                    
00008c29  ButtonsPoll                    
000098d9  C$$EXIT                        
0000956f  C$$IO$$                        
0000a46b  CPUcpsid                       
0000a477  CPUcpsie                       
000047fd  CompDCMAccelUpdate             
00004c7b  CompDCMComputeEulers           
00004ced  CompDCMComputeQuaternion       
00004825  CompDCMGyroUpdate              
00004789  CompDCMInit                    
0000484d  CompDCMMagnetoUpdate           
00004c27  CompDCMMatrixGet               
00004875  CompDCMStart                   
00004949  CompDCMUpdate                  
0000051d  ConsoleIntHandler              
00000ad5  DCMUpdateTimer                 
00001769  DeactivateSolenoids            
0000a381  FPUEnable                      
0000a391  FPULazyStackingEnable          
00009f17  GPIODirModeSet                 
0000a523  GPIOIntClear                   
0000a483  GPIOIntEnable                  
0000a0f5  GPIOIntRegister                
0000a3fd  GPIOIntStatus                  
00009781  GPIOIntTypeSet                 
000088fd  GPIOPadConfigSet               
00009afd  GPIOPinConfigure               
0000a529  GPIOPinRead                    
0000a299  GPIOPinTypeADC                 
0000a2ab  GPIOPinTypeGPIOInput           
0000a10d  GPIOPinTypeGPIOOutput          
0000a2bd  GPIOPinTypeI2C                 
0000a2cf  GPIOPinTypeI2CSCL              
0000a2e1  GPIOPinTypePWM                 
0000a2f3  GPIOPinTypeTimer               
0000a305  GPIOPinTypeUART                
0000a52f  GPIOPinWrite                   
000007f9  GPSIntHandler                  
000065fb  GetBME280RawData               
00000815  GndMtr1IntHandler              
00000817  GndMtr2IntHandler              
00006ba7  HOSTclock                      
00006b6f  HOSTclose                      
00006b31  HOSTgetenv                     
00006ad5  HOSTlseek                      
00006a83  HOSTopen                       
00006a37  HOSTread                       
000069d9  HOSTrename                     
0000699f  HOSTtime                       
00006951  HOSTtime64                     
00006919  HOSTunlink                     
000068cd  HOSTwrite                      
00007195  I2CBurstWrite                  
0000a4f3  I2CMasterBusBusy               
0000a4fb  I2CMasterBusy                  
0000a547  I2CMasterControl               
0000a54b  I2CMasterDataGet               
0000a54f  I2CMasterDataPut               
0000a4a5  I2CMasterDisable               
0000a4af  I2CMasterEnable                
0000a1b5  I2CMasterErr                   
000099cd  I2CMasterInitExpClk            
0000a503  I2CMasterSlaveAddrSet          
00007257  I2CRead                        
00007227  I2CSingleWrite                 
00007347  I2CWait                        
0000444d  InitAirMtrs                    
000043a5  InitAltimeter                  
00006525  InitBME280                     
00005035  InitBMI160                     
00003b47  InitConsole                    
00003c6d  InitGPS                        
00003cbd  InitGndMotors                  
00004255  InitIMU                        
00003b15  InitLED                        
00008105  InitMMA8452Q                   
00003b99  InitRadio                      
00005695  InitRx24FMotor                 
000045dd  InitSecondaryAccel             
00003d77  InitSolarPanels                
0000419d  InitSolenoidEnablePins         
00003f51  InitUltraSonicSensor           
00009471  IntEnable                      
0000a3a1  IntMasterDisable               
0000a3b1  IntMasterEnable                
00009dbd  IntRegister                    
00000c13  MMA8452QIntHandler             
00000e0d  Menu                           
0000a1f9  PWMClockSet                    
00009fb5  PWMGenConfigure                
0000a317  PWMGenPeriodGet                
0000a3c1  PWMGenPeriodSet                
0000a329  PWMOutputState                 
0000a057  PWMPulseWidthSet               
00001685  ProcessADC                     
00001221  ProcessGPS                     
000019f9  ProcessIMUData                 
000015f1  ProcessRadio                   
000016cd  ProcessUltraSonic              
0000063d  RadioIntHandler                
00000a89  RadioTimeoutIntHandler         
00009729  ResetISR                       
00005ae3  Rx24FRead                      
00005935  Rx24FWrite                     
UNDEFED   SHT$$INIT_ARRAY$$Base          
UNDEFED   SHT$$INIT_ARRAY$$Limit         
00000821  SPIntHandler                   
000017bd  SendPacket                     
00000a29  SolenoidInterrupt              
00007a25  SysCtlClockFreqSet             
0000a535  SysCtlDelay                    
00009df1  SysCtlPeripheralDisable        
00009e25  SysCtlPeripheralEnable         
00009cdd  SysCtlPeripheralPresent        
00009d15  SysCtlPeripheralReady          
0000992d  SysCtlPeripheralReset          
0000a20d  SysTickEnable                  
0000a221  SysTickIntEnable               
000004c9  SysTickIntHandler              
0000a075  SysTickIntRegister             
0000a3d1  SysTickPeriodSet               
00000989  Timer1AInterrupt               
000009dd  Timer1BInterrupt               
00000845  Timer2AInterrupt               
0000088d  Timer2BInterrupt               
000008d9  Timer3AInterrupt               
0000092d  Timer3BInterrupt               
0000a53b  TimerClockSourceSet            
00009671  TimerConfigure                 
0000a1cb  TimerControlEvent              
0000a125  TimerDisable                   
0000a40b  TimerEnable                    
0000a553  TimerIntClear                  
0000a50b  TimerIntEnable                 
0000a13d  TimerIntRegister               
0000a4b9  TimerIntStatus                 
0000a33b  TimerLoadSet                   
0000a34d  TimerPrescaleSet               
0000a4c3  TimerValueGet                  
00000c9b  TurnOffLED                     
00000c39  TurnOnLED                      
0000a513  UARTBusy                       
0000a4cd  UARTCharGet                    
0000a419  UARTCharGetNonBlocking         
0000a4d7  UARTCharPut                    
0000a427  UARTCharPutNonBlocking         
0000a435  UARTCharsAvail                 
0000a541  UARTClockSourceSet             
00009bd5  UARTConfigSetExpClk            
00009fd9  UARTDisable                    
0000a235  UARTEnable                     
0000a557  UARTIntClear                   
0000a51b  UARTIntEnable                  
0000a155  UARTIntRegister                
0000a4e1  UARTIntStatus                  
0000a443  UARTSpaceAvail                 
00005cb9  UARTStdioConfig                
00005dff  UARTgetc                       
00005d45  UARTgets                       
0000611f  UARTprintf                     
00005e25  UARTvprintf                    
00005cff  UARTwrite                      
00001f15  UpdateTrajectory               
00009e59  VectorAdd                      
000097d7  VectorCrossProduct             
00009f69  VectorDotProduct               
00009f8f  VectorScale                    
00000d1d  WaitForButtonPress             
2000126c  __CIOBUF_                      
2000126c  __STACK_END                    
00001000  __STACK_SIZE                   
2000046c  __STACK_TOP                    
00000200  __SYSMEM_SIZE                  
0000ae38  __TI_CINIT_Base                
0000ae50  __TI_CINIT_Limit               
0000ae18  __TI_Handler_Table_Base        
0000ae24  __TI_Handler_Table_Limit       
00009325  __TI_auto_init                 
00007cd9  __TI_cleanup                   
200017c4  __TI_cleanup_ptr               
00008ff5  __TI_closefile                 
000094d9  __TI_decompress_lzss           
0000a451  __TI_decompress_none           
00008de5  __TI_doflush                   
200017c8  __TI_dtors_ptr                 
200017cc  __TI_enable_exit_profile_output
200017b4  __TI_ft_end                    
ffffffff  __TI_pprof_out_hndl            
00003219  __TI_printfi                   
ffffffff  __TI_prof_data_size            
ffffffff  __TI_prof_data_start           
00008f0f  __TI_rd_ok                     
00009573  __TI_readmsg                   
00000000  __TI_static_base__             
2000138c  __TI_tmpnams                   
00009541  __TI_writemsg                  
00008ead  __TI_wrt_ok                    
0000a48f  __TI_zero_init                 
0000a55b  __abort_execution              
00009125  __aeabi_cdcmpeq                
00009125  __aeabi_cdcmple                
000091ab  __aeabi_cdrcmple               
00009395  __aeabi_d2f                    
00009b8d  __aeabi_d2iz                   
00007ddf  __aeabi_dadd                   
00008691  __aeabi_ddiv                   
00008a2f  __aeabi_dmul                   
00007dd5  __aeabi_dsub                   
00009d4d  __aeabi_f2d                    
00009ee9  __aeabi_i2d                    
00003b13  __aeabi_idiv0                  
00005693  __aeabi_ldiv0                  
00007611  __aeabi_ldivmod                
0000a185  __aeabi_lmul                   
000092ab  __aeabi_memclr                 
000092ab  __aeabi_memclr4                
000092ab  __aeabi_memclr8                
00008f59  __aeabi_memcpy                 
00008f59  __aeabi_memcpy4                
00008f59  __aeabi_memcpy8                
000092ad  __aeabi_memset                 
000092ad  __aeabi_memset4                
000092ad  __aeabi_memset8                
200017c0  __aeabi_stderr                 
200017b8  __aeabi_stdin                  
200017bc  __aeabi_stdout                 
00009c9d  __aeabi_uidiv                  
00009c9d  __aeabi_uidivmod               
0000782f  __aeabi_uldivmod               
ffffffff  __binit__                      
ffffffff  __c_args__                     
00009e8b  __isnanf                       
000068cb  __mpu_init                     
2000026c  __stack                        
00007005  __vla_alloc                    
00006efd  __vla_dealloc                  
00006f85  __vla_dealloc_eh               
0000a16d  _args_main                     
00009885  _c_int00                       
0000a718  _ctypes_                       
200015b0  _ftable                        
200017dc  _lock                          
0000a257  _nop                           
0000a24f  _register_lock                 
0000a249  _register_unlock               
20001808  _sys_memory                    
000073d3  _system_post_cinit             
0000a55f  _system_pre_init               
200017e0  _unlock                        
000098dd  abort                          
00006e51  add_device                     
00007f8d  asinf                          
000083e9  atan2f                         
00008541  atanf                          
0000a35f  atof                           
00009a65  atoi                           
ffffffff  binit                          
000064f5  calloc                         
00006e01  close                          
00009ab1  copy_in                        
0000a25d  copysign                       
0000a25d  copysignl                      
200017f8  errno                          
000098e5  exit                           
0000905b  fclose                         
00008e31  fflush                         
00007d2f  fopen                          
0000940d  fprintf                        
0000908d  fputc                          
000087c9  fputs                          
0000623f  free                           
00007d05  freopen                        
0000960d  frexp                          
0000960d  frexpl                         
000095a9  fseek                          
20001783  g_ADCFlag                      
200017a0  g_Accel2GFactor                
20001590  g_BME280OffsetUnsigned         
2000155c  g_BME280OffsetValues           
20001588  g_BME280RawData                
200017a4  g_BME280Ready                  
200015ad  g_CharConsole                  
20001781  g_ConsoleFlag                  
20001788  g_GPSConnected                 
20001786  g_GPSFlag                      
20001787  g_GPSLEDOn                     
200017e4  g_GyroBias                     
2000178d  g_IMUDataFlag                  
2000179c  g_LED1On                       
20001780  g_LED4On                       
200017ea  g_MagBias                      
20001484  g_Pack                         
20001594  g_Pressure                     
20001785  g_PrintFlag                    
200017a5  g_PrintRawBMIData              
20001789  g_PrintRawGPS                  
20001782  g_Quit                         
20001784  g_RadioFlag                    
20001598  g_SysClockSpeed                
2000177c  g_SysTickCount                 
2000159c  g_Temp                         
200015a0  g_TimerFallValue               
2000178a  g_TimerFirstPass               
200015a4  g_TimerRiseValue               
2000178b  g_UltraSonicFlag               
2000178c  g_UltraSonicSensor             
20001790  g_accelLSBg                    
200015ae  g_bDCMStarted                  
20001568  g_fGyroData                    
20001794  g_fGyroLSB                     
20001574  g_fMagData                     
20001798  g_fMagLSB                      
2000179d  g_loopCount                    
200017ac  g_p_t_fine                     
20000000  g_pfnRAMVectors                
00000000  g_pfnVectors                   
200017a8  g_ptrBME280RawData             
2000142c  g_sCompDCMInst                 
20001540  g_sRxPack                      
200015a8  g_t_fine                       
20001774  g_ui32MaxThrottle              
20001778  g_ui32ThrottleIncrement        
20001770  g_ui32ZeroThrottle             
00008b2d  ldexp                          
00008b2d  ldexpl                         
00006ddd  lseek                          
0000982d  ltoa                           
00000209  main                           
20001800  main_func_sp                   
000061d5  malloc                         
00006409  memalign                       
0000a091  memccpy                        
0000a019  memchr                         
00008f59  memcpy                         
000092b3  memset                         
00006155  minit                          
00006d2f  open                           
0000908d  putc                           
00009111  putchar                        
000088d5  puts                           
00006d0b  read                           
00006301  realloc                        
00006c81  remove                         
00006ce3  remove_device                  
00006ca5  rename                         
200014d8  sStatus                        
20001504  sThrottle                      
00008b2d  scalbn                         
00008b2d  scalbnl                        
00008d09  setvbuf                        
00008279  sqrt                           
00009f41  sqrtf                          
00008279  sqrtl                          
0000a1e1  strchr                         
0000a19d  strcmp                         
0000a271  strcpy                         
0000a285  strlen                         
00009d85  strncpy                        
000073d5  strtod                         
000073d5  strtold                        
00006c81  unlink                         
00006bf1  write                          


GLOBAL SYMBOLS: SORTED BY Symbol Address 

address   name                           
-------   ----                           
00000000  __TI_static_base__             
00000000  g_pfnVectors                   
00000200  __SYSMEM_SIZE                  
00000209  main                           
000004c9  SysTickIntHandler              
0000051d  ConsoleIntHandler              
0000063d  RadioIntHandler                
000007f9  GPSIntHandler                  
00000815  GndMtr1IntHandler              
00000817  GndMtr2IntHandler              
00000821  SPIntHandler                   
00000845  Timer2AInterrupt               
0000088d  Timer2BInterrupt               
000008d9  Timer3AInterrupt               
0000092d  Timer3BInterrupt               
00000989  Timer1AInterrupt               
000009dd  Timer1BInterrupt               
00000a29  SolenoidInterrupt              
00000a4b  BMI160IntHandler               
00000a6d  BME280IntHandler               
00000a89  RadioTimeoutIntHandler         
00000ad5  DCMUpdateTimer                 
00000c13  MMA8452QIntHandler             
00000c39  TurnOnLED                      
00000c9b  TurnOffLED                     
00000d1d  WaitForButtonPress             
00000e0d  Menu                           
00001000  __STACK_SIZE                   
00001221  ProcessGPS                     
000015f1  ProcessRadio                   
00001685  ProcessADC                     
000016cd  ProcessUltraSonic              
0000173d  ActivateSolenoids              
00001769  DeactivateSolenoids            
000017bd  SendPacket                     
000019f9  ProcessIMUData                 
00001f15  UpdateTrajectory               
00003219  __TI_printfi                   
00003b13  __aeabi_idiv0                  
00003b15  InitLED                        
00003b47  InitConsole                    
00003b99  InitRadio                      
00003c6d  InitGPS                        
00003cbd  InitGndMotors                  
00003d77  InitSolarPanels                
00003f51  InitUltraSonicSensor           
0000419d  InitSolenoidEnablePins         
00004255  InitIMU                        
000043a5  InitAltimeter                  
0000444d  InitAirMtrs                    
000045dd  InitSecondaryAccel             
00004789  CompDCMInit                    
000047fd  CompDCMAccelUpdate             
00004825  CompDCMGyroUpdate              
0000484d  CompDCMMagnetoUpdate           
00004875  CompDCMStart                   
00004949  CompDCMUpdate                  
00004c27  CompDCMMatrixGet               
00004c7b  CompDCMComputeEulers           
00004ced  CompDCMComputeQuaternion       
00005035  InitBMI160                     
00005693  __aeabi_ldiv0                  
00005695  InitRx24FMotor                 
00005935  Rx24FWrite                     
00005ae3  Rx24FRead                      
00005cb9  UARTStdioConfig                
00005cff  UARTwrite                      
00005d45  UARTgets                       
00005dff  UARTgetc                       
00005e25  UARTvprintf                    
0000611f  UARTprintf                     
00006155  minit                          
000061d5  malloc                         
0000623f  free                           
00006301  realloc                        
00006409  memalign                       
000064f5  calloc                         
00006525  InitBME280                     
000065fb  GetBME280RawData               
00006613  BME280_compensate_T_int32      
00006685  BME280_compensate_P_int64      
000068cb  __mpu_init                     
000068cd  HOSTwrite                      
00006919  HOSTunlink                     
00006951  HOSTtime64                     
0000699f  HOSTtime                       
000069d9  HOSTrename                     
00006a37  HOSTread                       
00006a83  HOSTopen                       
00006ad5  HOSTlseek                      
00006b31  HOSTgetenv                     
00006b6f  HOSTclose                      
00006ba7  HOSTclock                      
00006bf1  write                          
00006c81  remove                         
00006c81  unlink                         
00006ca5  rename                         
00006ce3  remove_device                  
00006d0b  read                           
00006d2f  open                           
00006ddd  lseek                          
00006e01  close                          
00006e51  add_device                     
00006efd  __vla_dealloc                  
00006f85  __vla_dealloc_eh               
00007005  __vla_alloc                    
00007195  I2CBurstWrite                  
00007227  I2CSingleWrite                 
00007257  I2CRead                        
00007347  I2CWait                        
000073d3  _system_post_cinit             
000073d5  strtod                         
000073d5  strtold                        
00007611  __aeabi_ldivmod                
0000782f  __aeabi_uldivmod               
00007a25  SysCtlClockFreqSet             
00007cd9  __TI_cleanup                   
00007d05  freopen                        
00007d2f  fopen                          
00007dd5  __aeabi_dsub                   
00007ddf  __aeabi_dadd                   
00007f8d  asinf                          
00008105  InitMMA8452Q                   
00008279  sqrt                           
00008279  sqrtl                          
000083e9  atan2f                         
00008541  atanf                          
00008691  __aeabi_ddiv                   
000087c9  fputs                          
000088d5  puts                           
000088fd  GPIOPadConfigSet               
00008a2f  __aeabi_dmul                   
00008b2d  ldexp                          
00008b2d  ldexpl                         
00008b2d  scalbn                         
00008b2d  scalbnl                        
00008c29  ButtonsPoll                    
00008cc9  ButtonsInit                    
00008d09  setvbuf                        
00008de5  __TI_doflush                   
00008e31  fflush                         
00008ead  __TI_wrt_ok                    
00008f0f  __TI_rd_ok                     
00008f59  __aeabi_memcpy                 
00008f59  __aeabi_memcpy4                
00008f59  __aeabi_memcpy8                
00008f59  memcpy                         
00008ff5  __TI_closefile                 
0000905b  fclose                         
0000908d  fputc                          
0000908d  putc                           
00009111  putchar                        
00009125  __aeabi_cdcmpeq                
00009125  __aeabi_cdcmple                
000091ab  __aeabi_cdrcmple               
00009231  ADCSequenceStepConfigure       
000092ab  __aeabi_memclr                 
000092ab  __aeabi_memclr4                
000092ab  __aeabi_memclr8                
000092ad  __aeabi_memset                 
000092ad  __aeabi_memset4                
000092ad  __aeabi_memset8                
000092b3  memset                         
00009325  __TI_auto_init                 
00009395  __aeabi_d2f                    
0000940d  fprintf                        
00009471  IntEnable                      
000094d9  __TI_decompress_lzss           
00009541  __TI_writemsg                  
0000956f  C$$IO$$                        
00009573  __TI_readmsg                   
000095a9  fseek                          
0000960d  frexp                          
0000960d  frexpl                         
00009671  TimerConfigure                 
000096d1  ADCSequenceConfigure           
00009729  ResetISR                       
00009781  GPIOIntTypeSet                 
000097d7  VectorCrossProduct             
0000982d  ltoa                           
00009885  _c_int00                       
000098d9  C$$EXIT                        
000098dd  abort                          
000098e5  exit                           
0000992d  SysCtlPeripheralReset          
000099cd  I2CMasterInitExpClk            
00009a65  atoi                           
00009ab1  copy_in                        
00009afd  GPIOPinConfigure               
00009b8d  __aeabi_d2iz                   
00009bd5  UARTConfigSetExpClk            
00009c9d  __aeabi_uidiv                  
00009c9d  __aeabi_uidivmod               
00009cdd  SysCtlPeripheralPresent        
00009d15  SysCtlPeripheralReady          
00009d4d  __aeabi_f2d                    
00009d85  strncpy                        
00009dbd  IntRegister                    
00009df1  SysCtlPeripheralDisable        
00009e25  SysCtlPeripheralEnable         
00009e59  VectorAdd                      
00009e8b  __isnanf                       
00009ebb  ADCIntStatus                   
00009ee9  __aeabi_i2d                    
00009f17  GPIODirModeSet                 
00009f41  sqrtf                          
00009f69  VectorDotProduct               
00009f8f  VectorScale                    
00009fb5  PWMGenConfigure                
00009fd9  UARTDisable                    
0000a019  memchr                         
0000a039  ADCSequenceDataGet             
0000a057  PWMPulseWidthSet               
0000a075  SysTickIntRegister             
0000a091  memccpy                        
0000a0ad  ADCClockConfigSet              
0000a0c5  ADCIntRegister                 
0000a0dd  ADCProcessorTrigger            
0000a0f5  GPIOIntRegister                
0000a10d  GPIOPinTypeGPIOOutput          
0000a125  TimerDisable                   
0000a13d  TimerIntRegister               
0000a155  UARTIntRegister                
0000a16d  _args_main                     
0000a185  __aeabi_lmul                   
0000a19d  strcmp                         
0000a1b5  I2CMasterErr                   
0000a1cb  TimerControlEvent              
0000a1e1  strchr                         
0000a1f9  PWMClockSet                    
0000a20d  SysTickEnable                  
0000a221  SysTickIntEnable               
0000a235  UARTEnable                     
0000a249  _register_unlock               
0000a24f  _register_lock                 
0000a257  _nop                           
0000a25d  copysign                       
0000a25d  copysignl                      
0000a271  strcpy                         
0000a285  strlen                         
0000a299  GPIOPinTypeADC                 
0000a2ab  GPIOPinTypeGPIOInput           
0000a2bd  GPIOPinTypeI2C                 
0000a2cf  GPIOPinTypeI2CSCL              
0000a2e1  GPIOPinTypePWM                 
0000a2f3  GPIOPinTypeTimer               
0000a305  GPIOPinTypeUART                
0000a317  PWMGenPeriodGet                
0000a329  PWMOutputState                 
0000a33b  TimerLoadSet                   
0000a34d  TimerPrescaleSet               
0000a35f  atof                           
0000a371  ADCIntEnable                   
0000a381  FPUEnable                      
0000a391  FPULazyStackingEnable          
0000a3a1  IntMasterDisable               
0000a3b1  IntMasterEnable                
0000a3c1  PWMGenPeriodSet                
0000a3d1  SysTickPeriodSet               
0000a3e1  ADCSequenceDisable             
0000a3ef  ADCSequenceEnable              
0000a3fd  GPIOIntStatus                  
0000a40b  TimerEnable                    
0000a419  UARTCharGetNonBlocking         
0000a427  UARTCharPutNonBlocking         
0000a435  UARTCharsAvail                 
0000a443  UARTSpaceAvail                 
0000a451  __TI_decompress_none           
0000a45f  ADCReferenceSet                
0000a46b  CPUcpsid                       
0000a477  CPUcpsie                       
0000a483  GPIOIntEnable                  
0000a48f  __TI_zero_init                 
0000a49b  ADCIntClear                    
0000a4a5  I2CMasterDisable               
0000a4af  I2CMasterEnable                
0000a4b9  TimerIntStatus                 
0000a4c3  TimerValueGet                  
0000a4cd  UARTCharGet                    
0000a4d7  UARTCharPut                    
0000a4e1  UARTIntStatus                  
0000a4eb  ADCBusy                        
0000a4f3  I2CMasterBusBusy               
0000a4fb  I2CMasterBusy                  
0000a503  I2CMasterSlaveAddrSet          
0000a50b  TimerIntEnable                 
0000a513  UARTBusy                       
0000a51b  UARTIntEnable                  
0000a523  GPIOIntClear                   
0000a529  GPIOPinRead                    
0000a52f  GPIOPinWrite                   
0000a535  SysCtlDelay                    
0000a53b  TimerClockSourceSet            
0000a541  UARTClockSourceSet             
0000a547  I2CMasterControl               
0000a54b  I2CMasterDataGet               
0000a54f  I2CMasterDataPut               
0000a553  TimerIntClear                  
0000a557  UARTIntClear                   
0000a55b  __abort_execution              
0000a55f  _system_pre_init               
0000a718  _ctypes_                       
0000ae18  __TI_Handler_Table_Base        
0000ae24  __TI_Handler_Table_Limit       
0000ae38  __TI_CINIT_Base                
0000ae50  __TI_CINIT_Limit               
20000000  g_pfnRAMVectors                
2000026c  __stack                        
2000046c  __STACK_TOP                    
2000126c  __CIOBUF_                      
2000126c  __STACK_END                    
2000138c  __TI_tmpnams                   
2000142c  g_sCompDCMInst                 
20001484  g_Pack                         
200014d8  sStatus                        
20001504  sThrottle                      
20001540  g_sRxPack                      
2000155c  g_BME280OffsetValues           
20001568  g_fGyroData                    
20001574  g_fMagData                     
20001588  g_BME280RawData                
20001590  g_BME280OffsetUnsigned         
20001594  g_Pressure                     
20001598  g_SysClockSpeed                
2000159c  g_Temp                         
200015a0  g_TimerFallValue               
200015a4  g_TimerRiseValue               
200015a8  g_t_fine                       
200015ad  g_CharConsole                  
200015ae  g_bDCMStarted                  
200015b0  _ftable                        
20001770  g_ui32ZeroThrottle             
20001774  g_ui32MaxThrottle              
20001778  g_ui32ThrottleIncrement        
2000177c  g_SysTickCount                 
20001780  g_LED4On                       
20001781  g_ConsoleFlag                  
20001782  g_Quit                         
20001783  g_ADCFlag                      
20001784  g_RadioFlag                    
20001785  g_PrintFlag                    
20001786  g_GPSFlag                      
20001787  g_GPSLEDOn                     
20001788  g_GPSConnected                 
20001789  g_PrintRawGPS                  
2000178a  g_TimerFirstPass               
2000178b  g_UltraSonicFlag               
2000178c  g_UltraSonicSensor             
2000178d  g_IMUDataFlag                  
20001790  g_accelLSBg                    
20001794  g_fGyroLSB                     
20001798  g_fMagLSB                      
2000179c  g_LED1On                       
2000179d  g_loopCount                    
200017a0  g_Accel2GFactor                
200017a4  g_BME280Ready                  
200017a5  g_PrintRawBMIData              
200017a8  g_ptrBME280RawData             
200017ac  g_p_t_fine                     
200017b4  __TI_ft_end                    
200017b8  __aeabi_stdin                  
200017bc  __aeabi_stdout                 
200017c0  __aeabi_stderr                 
200017c4  __TI_cleanup_ptr               
200017c8  __TI_dtors_ptr                 
200017cc  __TI_enable_exit_profile_output
200017dc  _lock                          
200017e0  _unlock                        
200017e4  g_GyroBias                     
200017ea  g_MagBias                      
200017f8  errno                          
20001800  main_func_sp                   
20001808  _sys_memory                    
ffffffff  __TI_pprof_out_hndl            
ffffffff  __TI_prof_data_size            
ffffffff  __TI_prof_data_start           
ffffffff  __binit__                      
ffffffff  __c_args__                     
ffffffff  binit                          
UNDEFED   SHT$$INIT_ARRAY$$Base          
UNDEFED   SHT$$INIT_ARRAY$$Limit         

[381 symbols]
